target datalayout = "e-m:e-p270:32:32-p271:32:32-p272:64:64-i64:64-i128:128-f80:128-n8:16:32:64-S128"
target triple = "x86_64-pc-linux-gnu"

%struct.ossl_param_st = type { ptr, i32, ptr, i64, i64 }
%struct.TEST_DERIVEKEY_DATA = type { ptr, ptr, i64, ptr, i64, ptr, i64 }

@libctx = internal global ptr null, align 8
@.str.3 = private unnamed_addr constant [38 x i8] c"../openssl/test/evp_pkey_dhkem_test.c\00", align 1
@.str.8 = private unnamed_addr constant [7 x i8] c"X25519\00", align 1
@.str.45 = private unnamed_addr constant [5 x i8] c"priv\00", align 1
@.str.50 = private unnamed_addr constant [2 x i8] c"1\00", align 1
@.str.103 = private unnamed_addr constant [10 x i8] c"dhkem-ikm\00", align 1
@.str.105 = private unnamed_addr constant [29 x i8] c"EVP_PKEY_keygen_init(genctx)\00", align 1
@.str.106 = private unnamed_addr constant [40 x i8] c"EVP_PKEY_CTX_set_params(genctx, params)\00", align 1
@.str.108 = private unnamed_addr constant [110 x i8] c"EVP_PKEY_get_octet_string_param(pkey, OSSL_PKEY_PARAM_ENCODED_PUBLIC_KEY, pubkey, sizeof(pubkey), &pubkeylen)\00", align 1
@.str.109 = private unnamed_addr constant [16 x i8] c"encoded-pub-key\00", align 1
@.str.114 = private unnamed_addr constant [8 x i8] c"privkey\00", align 1
@.str.116 = private unnamed_addr constant [7 x i8] c"pubkey\00", align 1
@.str.117 = private unnamed_addr constant [7 x i8] c"t->pub\00", align 1
@.str.156 = private unnamed_addr constant [64 x i8] c"genctx = EVP_PKEY_CTX_new_from_name(libctx, t->curvename, NULL)\00", align 1
@.str.157 = private unnamed_addr constant [31 x i8] c"EVP_PKEY_keygen(genctx, &pkey)\00", align 1
@.str.158 = private unnamed_addr constant [103 x i8] c"EVP_PKEY_get_octet_string_param(pkey, OSSL_PKEY_PARAM_PRIV_KEY, privkey, sizeof(privkey), &privkeylen)\00", align 1
@.str.159 = private unnamed_addr constant [12 x i8] c"masked_priv\00", align 1

; Function Attrs: nounwind uwtable
define internal i32 @test_ecx_dhkem_derivekey(i32 noundef %0) #0 {
  %2 = alloca i32, align 4
  %3 = alloca i32, align 4
  %4 = alloca [2 x %struct.ossl_param_st], align 16
  %5 = alloca ptr, align 8
  %6 = alloca ptr, align 8
  %7 = alloca [64 x i8], align 16
  %8 = alloca [64 x i8], align 16
  %9 = alloca [64 x i8], align 16
  %10 = alloca i64, align 8
  %11 = alloca i64, align 8
  %12 = alloca ptr, align 8
  %13 = alloca %struct.ossl_param_st, align 8
  %14 = alloca %struct.ossl_param_st, align 8
  store i32 %0, ptr %2, align 4, !tbaa !10
  call void @llvm.lifetime.start.p0(i64 4, ptr %3) #6
  call void @llvm.lifetime.start.p0(i64 80, ptr %4) #6
  call void @llvm.lifetime.start.p0(i64 8, ptr %5) #6
  call void @llvm.lifetime.start.p0(i64 8, ptr %6) #6
  store ptr null, ptr %6, align 8, !tbaa !17
  call void @llvm.lifetime.start.p0(i64 64, ptr %7) #6
  call void @llvm.lifetime.start.p0(i64 64, ptr %8) #6
  call void @llvm.lifetime.start.p0(i64 64, ptr %9) #6
  call void @llvm.lifetime.start.p0(i64 8, ptr %10) #6
  store i64 0, ptr %10, align 8, !tbaa !13
  call void @llvm.lifetime.start.p0(i64 8, ptr %11) #6
  store i64 0, ptr %11, align 8, !tbaa !13
  call void @llvm.lifetime.start.p0(i64 8, ptr %12) #6
  %15 = load i32, ptr %2, align 4, !tbaa !10
  %16 = sext i32 %15 to i64
  %17 = getelementptr inbounds [2 x %struct.TEST_DERIVEKEY_DATA], ptr @ecx_derivekey_data, i64 0, i64 %16
  store ptr %17, ptr %12, align 8, !tbaa !12
  %18 = getelementptr inbounds [64 x i8], ptr %9, i64 0, i64 0
  %19 = load ptr, ptr %12, align 8, !tbaa !12
  %20 = getelementptr inbounds nuw %struct.TEST_DERIVEKEY_DATA, ptr %19, i32 0, i32 5
  %21 = load ptr, ptr %20, align 8, !tbaa !43
  %22 = load ptr, ptr %12, align 8, !tbaa !12
  %23 = getelementptr inbounds nuw %struct.TEST_DERIVEKEY_DATA, ptr %22, i32 0, i32 6
  %24 = load i64, ptr %23, align 8, !tbaa !44
  call void @llvm.memcpy.p0.p0.i64(ptr align 16 %18, ptr align 1 %21, i64 %24, i1 false)
  %25 = load ptr, ptr %12, align 8, !tbaa !12
  %26 = getelementptr inbounds nuw %struct.TEST_DERIVEKEY_DATA, ptr %25, i32 0, i32 0
  %27 = load ptr, ptr %26, align 8, !tbaa !39
  %28 = call i32 @OPENSSL_strcasecmp(ptr noundef %27, ptr noundef @.str.8)
  %29 = icmp eq i32 %28, 0
  br i1 %29, label %30, label %54

30:                                               ; preds = %1
  %31 = getelementptr inbounds [64 x i8], ptr %9, i64 0, i64 0
  %32 = load i8, ptr %31, align 16, !tbaa !47
  %33 = zext i8 %32 to i32
  %34 = and i32 %33, 248
  %35 = trunc i32 %34 to i8
  store i8 %35, ptr %31, align 16, !tbaa !47
  %36 = load ptr, ptr %12, align 8, !tbaa !12
  %37 = getelementptr inbounds nuw %struct.TEST_DERIVEKEY_DATA, ptr %36, i32 0, i32 6
  %38 = load i64, ptr %37, align 8, !tbaa !44
  %39 = sub i64 %38, 1
  %40 = getelementptr inbounds nuw [64 x i8], ptr %9, i64 0, i64 %39
  %41 = load i8, ptr %40, align 1, !tbaa !47
  %42 = zext i8 %41 to i32
  %43 = and i32 %42, 127
  %44 = trunc i32 %43 to i8
  store i8 %44, ptr %40, align 1, !tbaa !47
  %45 = load ptr, ptr %12, align 8, !tbaa !12
  %46 = getelementptr inbounds nuw %struct.TEST_DERIVEKEY_DATA, ptr %45, i32 0, i32 6
  %47 = load i64, ptr %46, align 8, !tbaa !44
  %48 = sub i64 %47, 1
  %49 = getelementptr inbounds nuw [64 x i8], ptr %9, i64 0, i64 %48
  %50 = load i8, ptr %49, align 1, !tbaa !47
  %51 = zext i8 %50 to i32
  %52 = or i32 %51, 64
  %53 = trunc i32 %52 to i8
  store i8 %53, ptr %49, align 1, !tbaa !47
  br label %69

54:                                               ; preds = %1
  %55 = getelementptr inbounds [64 x i8], ptr %9, i64 0, i64 0
  %56 = load i8, ptr %55, align 16, !tbaa !47
  %57 = zext i8 %56 to i32
  %58 = and i32 %57, 252
  %59 = trunc i32 %58 to i8
  store i8 %59, ptr %55, align 16, !tbaa !47
  %60 = load ptr, ptr %12, align 8, !tbaa !12
  %61 = getelementptr inbounds nuw %struct.TEST_DERIVEKEY_DATA, ptr %60, i32 0, i32 6
  %62 = load i64, ptr %61, align 8, !tbaa !44
  %63 = sub i64 %62, 1
  %64 = getelementptr inbounds nuw [64 x i8], ptr %9, i64 0, i64 %63
  %65 = load i8, ptr %64, align 1, !tbaa !47
  %66 = zext i8 %65 to i32
  %67 = or i32 %66, 128
  %68 = trunc i32 %67 to i8
  store i8 %68, ptr %64, align 1, !tbaa !47
  br label %69

69:                                               ; preds = %54, %30
  %70 = getelementptr inbounds [2 x %struct.ossl_param_st], ptr %4, i64 0, i64 0
  call void @llvm.lifetime.start.p0(i64 40, ptr %13) #6
  %71 = load ptr, ptr %12, align 8, !tbaa !12
  %72 = getelementptr inbounds nuw %struct.TEST_DERIVEKEY_DATA, ptr %71, i32 0, i32 1
  %73 = load ptr, ptr %72, align 8, !tbaa !41
  %74 = load ptr, ptr %12, align 8, !tbaa !12
  %75 = getelementptr inbounds nuw %struct.TEST_DERIVEKEY_DATA, ptr %74, i32 0, i32 2
  %76 = load i64, ptr %75, align 8, !tbaa !42
  call void @OSSL_PARAM_construct_octet_string(ptr dead_on_unwind writable sret(%struct.ossl_param_st) align 8 %13, ptr noundef @.str.103, ptr noundef %73, i64 noundef %76)
  call void @llvm.memcpy.p0.p0.i64(ptr align 16 %70, ptr align 8 %13, i64 40, i1 false), !tbaa.struct !9
  call void @llvm.lifetime.end.p0(i64 40, ptr %13) #6
  %77 = getelementptr inbounds [2 x %struct.ossl_param_st], ptr %4, i64 0, i64 1
  call void @llvm.lifetime.start.p0(i64 40, ptr %14) #6
  call void @OSSL_PARAM_construct_end(ptr dead_on_unwind writable sret(%struct.ossl_param_st) align 8 %14)
  call void @llvm.memcpy.p0.p0.i64(ptr align 8 %77, ptr align 8 %14, i64 40, i1 false), !tbaa.struct !9
  call void @llvm.lifetime.end.p0(i64 40, ptr %14) #6
  %78 = load ptr, ptr @libctx, align 8, !tbaa !15
  %79 = load ptr, ptr %12, align 8, !tbaa !12
  %80 = getelementptr inbounds nuw %struct.TEST_DERIVEKEY_DATA, ptr %79, i32 0, i32 0
  %81 = load ptr, ptr %80, align 8, !tbaa !39
  %82 = call ptr @EVP_PKEY_CTX_new_from_name(ptr noundef %78, ptr noundef %81, ptr noundef null)
  store ptr %82, ptr %5, align 8, !tbaa !19
  %83 = call i32 @test_ptr(ptr noundef @.str.3, i32 noundef 736, ptr noundef @.str.156, ptr noundef %82)
  %84 = icmp ne i32 %83, 0
  br i1 %84, label %85, label %133

85:                                               ; preds = %69
  %86 = load ptr, ptr %5, align 8, !tbaa !19
  %87 = call i32 @EVP_PKEY_keygen_init(ptr noundef %86)
  %88 = call i32 @test_int_eq(ptr noundef @.str.3, i32 noundef 737, ptr noundef @.str.105, ptr noundef @.str.50, i32 noundef %87, i32 noundef 1)
  %89 = icmp ne i32 %88, 0
  br i1 %89, label %90, label %133

90:                                               ; preds = %85
  %91 = load ptr, ptr %5, align 8, !tbaa !19
  %92 = getelementptr inbounds [2 x %struct.ossl_param_st], ptr %4, i64 0, i64 0
  %93 = call i32 @EVP_PKEY_CTX_set_params(ptr noundef %91, ptr noundef %92)
  %94 = call i32 @test_int_eq(ptr noundef @.str.3, i32 noundef 738, ptr noundef @.str.106, ptr noundef @.str.50, i32 noundef %93, i32 noundef 1)
  %95 = icmp ne i32 %94, 0
  br i1 %95, label %96, label %133

96:                                               ; preds = %90
  %97 = load ptr, ptr %5, align 8, !tbaa !19
  %98 = call i32 @EVP_PKEY_keygen(ptr noundef %97, ptr noundef %6)
  %99 = call i32 @test_int_eq(ptr noundef @.str.3, i32 noundef 739, ptr noundef @.str.157, ptr noundef @.str.50, i32 noundef %98, i32 noundef 1)
  %100 = icmp ne i32 %99, 0
  br i1 %100, label %101, label %133

101:                                              ; preds = %96
  %102 = load ptr, ptr %6, align 8, !tbaa !17
  %103 = getelementptr inbounds [64 x i8], ptr %7, i64 0, i64 0
  %104 = call i32 @EVP_PKEY_get_octet_string_param(ptr noundef %102, ptr noundef @.str.109, ptr noundef %103, i64 noundef 64, ptr noundef %10)
  %105 = call i32 @test_int_eq(ptr noundef @.str.3, i32 noundef 742, ptr noundef @.str.108, ptr noundef @.str.50, i32 noundef %104, i32 noundef 1)
  %106 = icmp ne i32 %105, 0
  br i1 %106, label %107, label %133

107:                                              ; preds = %101
  %108 = load ptr, ptr %6, align 8, !tbaa !17
  %109 = getelementptr inbounds [64 x i8], ptr %8, i64 0, i64 0
  %110 = call i32 @EVP_PKEY_get_octet_string_param(ptr noundef %108, ptr noundef @.str.45, ptr noundef %109, i64 noundef 64, ptr noundef %11)
  %111 = call i32 @test_int_eq(ptr noundef @.str.3, i32 noundef 745, ptr noundef @.str.158, ptr noundef @.str.50, i32 noundef %110, i32 noundef 1)
  %112 = icmp ne i32 %111, 0
  br i1 %112, label %113, label %133

113:                                              ; preds = %107
  %114 = load ptr, ptr %12, align 8, !tbaa !12
  %115 = getelementptr inbounds nuw %struct.TEST_DERIVEKEY_DATA, ptr %114, i32 0, i32 3
  %116 = load ptr, ptr %115, align 8, !tbaa !45
  %117 = load ptr, ptr %12, align 8, !tbaa !12
  %118 = getelementptr inbounds nuw %struct.TEST_DERIVEKEY_DATA, ptr %117, i32 0, i32 4
  %119 = load i64, ptr %118, align 8, !tbaa !46
  %120 = getelementptr inbounds [64 x i8], ptr %7, i64 0, i64 0
  %121 = load i64, ptr %10, align 8, !tbaa !13
  %122 = call i32 @test_mem_eq(ptr noundef @.str.3, i32 noundef 746, ptr noundef @.str.117, ptr noundef @.str.116, ptr noundef %116, i64 noundef %119, ptr noundef %120, i64 noundef %121)
  %123 = icmp ne i32 %122, 0
  br i1 %123, label %124, label %133

124:                                              ; preds = %113
  %125 = getelementptr inbounds [64 x i8], ptr %9, i64 0, i64 0
  %126 = load ptr, ptr %12, align 8, !tbaa !12
  %127 = getelementptr inbounds nuw %struct.TEST_DERIVEKEY_DATA, ptr %126, i32 0, i32 6
  %128 = load i64, ptr %127, align 8, !tbaa !44
  %129 = getelementptr inbounds [64 x i8], ptr %8, i64 0, i64 0
  %130 = load i64, ptr %11, align 8, !tbaa !13
  %131 = call i32 @test_mem_eq(ptr noundef @.str.3, i32 noundef 747, ptr noundef @.str.159, ptr noundef @.str.114, ptr noundef %125, i64 noundef %128, ptr noundef %129, i64 noundef %130)
  %132 = icmp ne i32 %131, 0
  br label %133

133:                                              ; preds = %124, %113, %107, %101, %96, %90, %85, %69
  %134 = phi i1 [ false, %113 ], [ false, %107 ], [ false, %101 ], [ false, %96 ], [ false, %90 ], [ false, %85 ], [ false, %69 ], [ %132, %124 ]
  %135 = zext i1 %134 to i32
  store i32 %135, ptr %3, align 4, !tbaa !10
  %136 = load ptr, ptr %6, align 8, !tbaa !17
  call void @EVP_PKEY_free(ptr noundef %136)
  %137 = load ptr, ptr %5, align 8, !tbaa !19
  call void @EVP_PKEY_CTX_free(ptr noundef %137)
  %138 = load i32, ptr %3, align 4, !tbaa !10
  call void @llvm.lifetime.end.p0(i64 8, ptr %12) #6
  call void @llvm.lifetime.end.p0(i64 8, ptr %11) #6
  call void @llvm.lifetime.end.p0(i64 8, ptr %10) #6
  call void @llvm.lifetime.end.p0(i64 64, ptr %9) #6
  call void @llvm.lifetime.end.p0(i64 64, ptr %8) #6
  call void @llvm.lifetime.end.p0(i64 64, ptr %7) #6
  call void @llvm.lifetime.end.p0(i64 8, ptr %6) #6
  call void @llvm.lifetime.end.p0(i64 8, ptr %5) #6
  call void @llvm.lifetime.end.p0(i64 80, ptr %4) #6
  call void @llvm.lifetime.end.p0(i64 4, ptr %3) #6
  ret i32 %138
}