; Function Attrs: nounwind uwtable
define internal range(i32 0, 2) i32 @test_ecx_dhkem_derivekey(i32 noundef %0) #0 {
  %2 = alloca [2 x %struct.ossl_param_st], align 16
  %3 = alloca ptr, align 8
  %4 = alloca [64 x i8], align 16
  %5 = alloca [64 x i8], align 16
  %6 = alloca [64 x i8], align 16
  %7 = alloca i64, align 8
  %8 = alloca i64, align 8
  %9 = alloca %struct.ossl_param_st, align 8
  call void @llvm.lifetime.start.p0(i64 80, ptr nonnull %2) #5
  call void @llvm.lifetime.start.p0(i64 8, ptr nonnull %3) #5
  store ptr null, ptr %3, align 8, !tbaa !17
  call void @llvm.lifetime.start.p0(i64 64, ptr nonnull %4) #5
  call void @llvm.lifetime.start.p0(i64 64, ptr nonnull %5) #5
  call void @llvm.lifetime.start.p0(i64 64, ptr nonnull %6) #5
  call void @llvm.lifetime.start.p0(i64 8, ptr nonnull %7) #5
  store i64 0, ptr %7, align 8, !tbaa !13
  call void @llvm.lifetime.start.p0(i64 8, ptr nonnull %8) #5
  store i64 0, ptr %8, align 8, !tbaa !13
  %10 = sext i32 %0 to i64
  %11 = getelementptr inbounds [2 x %struct.TEST_DERIVEKEY_DATA], ptr @ecx_derivekey_data, i64 0, i64 %10
  %12 = getelementptr inbounds nuw i8, ptr %11, i64 40
  %13 = load ptr, ptr %12, align 8, !tbaa !45
  %14 = getelementptr inbounds nuw i8, ptr %11, i64 48
  %15 = load i64, ptr %14, align 8, !tbaa !46
  call void @llvm.memcpy.p0.p0.i64(ptr nonnull align 16 %6, ptr align 1 %13, i64 %15, i1 false)
  %16 = load ptr, ptr %11, align 8, !tbaa !41
  %17 = tail call i32 @OPENSSL_strcasecmp(ptr noundef %16, ptr noundef nonnull @.str.8) #5
  %18 = icmp eq i32 %17, 0
  %19 = load i8, ptr %6, align 16, !tbaa !49
  %20 = add i64 %15, -1
  %21 = getelementptr inbounds nuw [64 x i8], ptr %6, i64 0, i64 %20
  br i1 %18, label %22, label %27

22:                                               ; preds = %1
  %23 = and i8 %19, -8
  store i8 %23, ptr %6, align 16, !tbaa !49
  %24 = load i8, ptr %21, align 1, !tbaa !49
  %25 = and i8 %24, 63
  %26 = or disjoint i8 %25, 64
  br label %31

27:                                               ; preds = %1
  %28 = and i8 %19, -4
  store i8 %28, ptr %6, align 16, !tbaa !49
  %29 = load i8, ptr %21, align 1, !tbaa !49
  %30 = or i8 %29, -128
  br label %31

31:                                               ; preds = %27, %22
  %.sink = phi i8 [ %30, %27 ], [ %26, %22 ]
  store i8 %.sink, ptr %21, align 1, !tbaa !49
  %32 = getelementptr inbounds nuw i8, ptr %11, i64 8
  %33 = load ptr, ptr %32, align 8, !tbaa !43
  %34 = getelementptr inbounds nuw i8, ptr %11, i64 16
  %35 = load i64, ptr %34, align 8, !tbaa !44
  call void @OSSL_PARAM_construct_octet_string(ptr dead_on_unwind nonnull writable sret(%struct.ossl_param_st) align 8 %2, ptr noundef nonnull @.str.103, ptr noundef %33, i64 noundef %35) #5
  %36 = getelementptr inbounds nuw i8, ptr %2, i64 40
  call void @llvm.lifetime.start.p0(i64 40, ptr nonnull %9) #5
  call void @OSSL_PARAM_construct_end(ptr dead_on_unwind nonnull writable sret(%struct.ossl_param_st) align 8 %9) #5
  call void @llvm.memcpy.p0.p0.i64(ptr noundef nonnull align 8 dereferenceable(40) %36, ptr noundef nonnull align 8 dereferenceable(40) %9, i64 40, i1 false), !tbaa.struct !4
  call void @llvm.lifetime.end.p0(i64 40, ptr nonnull %9) #5
  %37 = load ptr, ptr @libctx, align 8, !tbaa !15
  %38 = call ptr @EVP_PKEY_CTX_new_from_name(ptr noundef %37, ptr noundef %16, ptr noundef null) #5
  %39 = call i32 @test_ptr(ptr noundef nonnull @.str.3, i32 noundef 736, ptr noundef nonnull @.str.156, ptr noundef %38) #5
  %.not = icmp eq i32 %39, 0
  br i1 %.not, label %69, label %40

40:                                               ; preds = %31
  %41 = call i32 @EVP_PKEY_keygen_init(ptr noundef %38) #5
  %42 = call i32 @test_int_eq(ptr noundef nonnull @.str.3, i32 noundef 737, ptr noundef nonnull @.str.105, ptr noundef nonnull @.str.50, i32 noundef %41, i32 noundef 1) #5
  %.not17 = icmp eq i32 %42, 0
  br i1 %.not17, label %69, label %43

43:                                               ; preds = %40
  %44 = call i32 @EVP_PKEY_CTX_set_params(ptr noundef %38, ptr noundef nonnull %2) #5
  %45 = call i32 @test_int_eq(ptr noundef nonnull @.str.3, i32 noundef 738, ptr noundef nonnull @.str.106, ptr noundef nonnull @.str.50, i32 noundef %44, i32 noundef 1) #5
  %.not18 = icmp eq i32 %45, 0
  br i1 %.not18, label %69, label %46

46:                                               ; preds = %43
  %47 = call i32 @EVP_PKEY_keygen(ptr noundef %38, ptr noundef nonnull %3) #5
  %48 = call i32 @test_int_eq(ptr noundef nonnull @.str.3, i32 noundef 739, ptr noundef nonnull @.str.157, ptr noundef nonnull @.str.50, i32 noundef %47, i32 noundef 1) #5
  %.not19 = icmp eq i32 %48, 0
  br i1 %.not19, label %69, label %49

49:                                               ; preds = %46
  %50 = load ptr, ptr %3, align 8, !tbaa !17
  %51 = call i32 @EVP_PKEY_get_octet_string_param(ptr noundef %50, ptr noundef nonnull @.str.109, ptr noundef nonnull %4, i64 noundef 64, ptr noundef nonnull %7) #5
  %52 = call i32 @test_int_eq(ptr noundef nonnull @.str.3, i32 noundef 742, ptr noundef nonnull @.str.108, ptr noundef nonnull @.str.50, i32 noundef %51, i32 noundef 1) #5
  %.not20 = icmp eq i32 %52, 0
  br i1 %.not20, label %69, label %53

53:                                               ; preds = %49
  %54 = load ptr, ptr %3, align 8, !tbaa !17
  %55 = call i32 @EVP_PKEY_get_octet_string_param(ptr noundef %54, ptr noundef nonnull @.str.45, ptr noundef nonnull %5, i64 noundef 64, ptr noundef nonnull %8) #5
  %56 = call i32 @test_int_eq(ptr noundef nonnull @.str.3, i32 noundef 745, ptr noundef nonnull @.str.158, ptr noundef nonnull @.str.50, i32 noundef %55, i32 noundef 1) #5
  %.not21 = icmp eq i32 %56, 0
  br i1 %.not21, label %69, label %57

57:                                               ; preds = %53
  %58 = getelementptr inbounds nuw i8, ptr %11, i64 24
  %59 = load ptr, ptr %58, align 8, !tbaa !47
  %60 = getelementptr inbounds nuw i8, ptr %11, i64 32
  %61 = load i64, ptr %60, align 8, !tbaa !48
  %62 = load i64, ptr %7, align 8, !tbaa !13
  %63 = call i32 @test_mem_eq(ptr noundef nonnull @.str.3, i32 noundef 746, ptr noundef nonnull @.str.117, ptr noundef nonnull @.str.116, ptr noundef %59, i64 noundef %61, ptr noundef nonnull %4, i64 noundef %62) #5
  %.not22 = icmp eq i32 %63, 0
  br i1 %.not22, label %69, label %64

64:                                               ; preds = %57
  %65 = load i64, ptr %8, align 8, !tbaa !13
  %66 = call i32 @test_mem_eq(ptr noundef nonnull @.str.3, i32 noundef 747, ptr noundef nonnull @.str.159, ptr noundef nonnull @.str.114, ptr noundef nonnull %6, i64 noundef %15, ptr noundef nonnull %5, i64 noundef %65) #5
  %67 = icmp ne i32 %66, 0
  %68 = zext i1 %67 to i32
  br label %69

69:                                               ; preds = %64, %57, %53, %49, %46, %43, %40, %31
  %70 = phi i32 [ 0, %57 ], [ 0, %53 ], [ 0, %49 ], [ 0, %46 ], [ 0, %43 ], [ 0, %40 ], [ 0, %31 ], [ %68, %64 ]
  %71 = load ptr, ptr %3, align 8, !tbaa !17
  call void @EVP_PKEY_free(ptr noundef %71) #5
  call void @EVP_PKEY_CTX_free(ptr noundef %38) #5
  call void @llvm.lifetime.end.p0(i64 8, ptr nonnull %8) #5
  call void @llvm.lifetime.end.p0(i64 8, ptr nonnull %7) #5
  call void @llvm.lifetime.end.p0(i64 64, ptr nonnull %6) #5
  call void @llvm.lifetime.end.p0(i64 64, ptr nonnull %5) #5
  call void @llvm.lifetime.end.p0(i64 64, ptr nonnull %4) #5
  call void @llvm.lifetime.end.p0(i64 8, ptr nonnull %3) #5
  call void @llvm.lifetime.end.p0(i64 80, ptr nonnull %2) #5
  ret i32 %70
}